target datalayout = "e-m:e-p270:32:32-p271:32:32-p272:64:64-i64:64-i128:128-f80:128-n8:16:32:64-S128"
target triple = "x86_64-unknown-linux-gnu"

%class.dep_intervals = type { ptr, %class.mpq_manager, %"class.dep_intervals::im_config", %class.interval_manager }
%class.mpq_manager = type { %class.mpz_manager, %class.mpz, %class.mpz, %class.mpz, %class.mpz, %class.mpq, %class.mpq }
%class.mpz_manager = type { %class.small_object_allocator, %"class.std::recursive_mutex", %class.mpn_manager, i32, %class.mpz, %class.mpz }
%class.small_object_allocator = type { [32 x ptr], [32 x ptr], i64 }
%"class.std::recursive_mutex" = type { %"class.std::__recursive_mutex_base" }
%"class.std::__recursive_mutex_base" = type { %union.pthread_mutex_t }
%union.pthread_mutex_t = type { %struct.__pthread_mutex_s }
%struct.__pthread_mutex_s = type { i32, i32, i32, i32, i32, i16, i16, %struct.__pthread_internal_list }
%struct.__pthread_internal_list = type { ptr, ptr }
%class.mpn_manager = type { i8 }
%class.mpz = type { i32, i8, ptr }
%class.mpq = type { %class.mpz, %class.mpz }
%"class.dep_intervals::im_config" = type { ptr, ptr }
%class.interval_manager = type { ptr, %"class.dep_intervals::im_config", %class.mpq, %class.mpq, %class.mpq, %class.mpq, %class.mpq, %class.mpq, %class.mpq, %class.mpq, %class.mpq, i32, %"struct.dep_intervals::im_config::interval", %"struct.dep_intervals::im_config::interval", %"struct.dep_intervals::im_config::interval", %"struct.dep_intervals::im_config::interval" }
%"struct.dep_intervals::im_config::interval" = type { %class.mpq, %class.mpq, i8, ptr, ptr }

; Function Attrs: mustprogress nounwind uwtable
define linkonce_odr hidden noundef i32 @_ZN11mpz_managerILb0EE4signERK3mpz(ptr noundef nonnull align 8 dereferenceable(16) %a) #5 comdat align 2 {
entry:
  %a.addr = alloca ptr, align 8
  store ptr %a, ptr %a.addr, align 8
  %0 = load ptr, ptr %a.addr, align 8
  %m_val = getelementptr inbounds %class.mpz, ptr %0, i32 0, i32 0
  %1 = load i32, ptr %m_val, align 8
  ret i32 %1
}

; Function Attrs: mustprogress uwtable
define linkonce_odr hidden noundef zeroext i1 @_ZN11mpz_managerILb0EE7is_zeroERK3mpz(ptr noundef nonnull align 8 dereferenceable(16) %a) #4 comdat align 2 {
entry:
  %a.addr = alloca ptr, align 8
  store ptr %a, ptr %a.addr, align 8
  %0 = load ptr, ptr %a.addr, align 8
  %call = call noundef i32 @_ZN11mpz_managerILb0EE4signERK3mpz(ptr noundef nonnull align 8 dereferenceable(16) %0)
  %cmp = icmp eq i32 %call, 0
  ret i1 %cmp
}

; Function Attrs: mustprogress nounwind uwtable
define linkonce_odr hidden noundef zeroext i1 @_ZN11mpz_managerILb0EE6is_negERK3mpz(ptr noundef nonnull align 8 dereferenceable(16) %a) #5 comdat align 2 {
entry:
  %a.addr = alloca ptr, align 8
  store ptr %a, ptr %a.addr, align 8
  %0 = load ptr, ptr %a.addr, align 8
  %call = call noundef i32 @_ZN11mpz_managerILb0EE4signERK3mpz(ptr noundef nonnull align 8 dereferenceable(16) %0)
  %cmp = icmp slt i32 %call, 0
  ret i1 %cmp
}

; Function Attrs: mustprogress uwtable
define linkonce_odr hidden noundef zeroext i1 @_ZN11mpq_managerILb0EE7is_zeroERK3mpz(ptr noundef nonnull align 8 dereferenceable(16) %a) #4 comdat align 2 {
entry:
  %a.addr = alloca ptr, align 8
  store ptr %a, ptr %a.addr, align 8
  %0 = load ptr, ptr %a.addr, align 8
  %call = call noundef zeroext i1 @_ZN11mpz_managerILb0EE7is_zeroERK3mpz(ptr noundef nonnull align 8 dereferenceable(16) %0)
  ret i1 %call
}

; Function Attrs: mustprogress uwtable
define linkonce_odr hidden noundef zeroext i1 @_ZN11mpq_managerILb0EE6is_negERK3mpz(ptr noundef nonnull align 8 dereferenceable(16) %a) #4 comdat align 2 {
entry:
  %a.addr = alloca ptr, align 8
  store ptr %a, ptr %a.addr, align 8
  %0 = load ptr, ptr %a.addr, align 8
  %call = call noundef zeroext i1 @_ZN11mpz_managerILb0EE6is_negERK3mpz(ptr noundef nonnull align 8 dereferenceable(16) %0)
  ret i1 %call
}

; Function Attrs: mustprogress nounwind uwtable
define linkonce_odr hidden noundef nonnull align 8 dereferenceable(32) ptr @_ZNK13dep_intervals9im_config5lowerERKNS0_8intervalE(ptr noundef nonnull align 8 dereferenceable(16) %this, ptr noundef nonnull align 8 dereferenceable(88) %a) #5 comdat align 2 {
entry:
  %this.addr = alloca ptr, align 8
  %a.addr = alloca ptr, align 8
  store ptr %this, ptr %this.addr, align 8
  store ptr %a, ptr %a.addr, align 8
  %0 = load ptr, ptr %a.addr, align 8
  %m_lower = getelementptr inbounds %"struct.dep_intervals::im_config::interval", ptr %0, i32 0, i32 0
  ret ptr %m_lower
}

; Function Attrs: mustprogress nounwind uwtable
define linkonce_odr hidden noundef zeroext i1 @_ZNK13dep_intervals9im_config12lower_is_infERKNS0_8intervalE(ptr noundef nonnull align 8 dereferenceable(16) %this, ptr noundef nonnull align 8 dereferenceable(88) %a) #5 comdat align 2 {
entry:
  %this.addr = alloca ptr, align 8
  %a.addr = alloca ptr, align 8
  store ptr %this, ptr %this.addr, align 8
  store ptr %a, ptr %a.addr, align 8
  %0 = load ptr, ptr %a.addr, align 8
  %m_lower_inf = getelementptr inbounds %"struct.dep_intervals::im_config::interval", ptr %0, i32 0, i32 2
  %bf.load = load i8, ptr %m_lower_inf, align 8
  %bf.lshr = lshr i8 %bf.load, 2
  %bf.clear = and i8 %bf.lshr, 1
  %bf.cast = zext i8 %bf.clear to i32
  %tobool = icmp ne i32 %bf.cast, 0
  ret i1 %tobool
}

; Function Attrs: mustprogress nounwind uwtable
define linkonce_odr hidden noundef zeroext i1 @_ZNK13dep_intervals9im_config13lower_is_openERKNS0_8intervalE(ptr noundef nonnull align 8 dereferenceable(16) %this, ptr noundef nonnull align 8 dereferenceable(88) %a) #5 comdat align 2 {
entry:
  %this.addr = alloca ptr, align 8
  %a.addr = alloca ptr, align 8
  store ptr %this, ptr %this.addr, align 8
  store ptr %a, ptr %a.addr, align 8
  %0 = load ptr, ptr %a.addr, align 8
  %m_lower_open = getelementptr inbounds %"struct.dep_intervals::im_config::interval", ptr %0, i32 0, i32 2
  %bf.load = load i8, ptr %m_lower_open, align 8
  %bf.clear = and i8 %bf.load, 1
  %bf.cast = zext i8 %bf.clear to i32
  %tobool = icmp ne i32 %bf.cast, 0
  ret i1 %tobool
}

; Function Attrs: mustprogress uwtable
define linkonce_odr hidden noundef zeroext i1 @_ZN11mpq_managerILb0EE7is_zeroERK3mpq(ptr noundef nonnull align 8 dereferenceable(32) %a) #4 comdat align 2 {
entry:
  %a.addr = alloca ptr, align 8
  store ptr %a, ptr %a.addr, align 8
  %0 = load ptr, ptr %a.addr, align 8
  %m_num = getelementptr inbounds %class.mpq, ptr %0, i32 0, i32 0
  %call = call noundef zeroext i1 @_ZN11mpq_managerILb0EE7is_zeroERK3mpz(ptr noundef nonnull align 8 dereferenceable(16) %m_num)
  ret i1 %call
}

; Function Attrs: mustprogress uwtable
define linkonce_odr hidden noundef zeroext i1 @_ZN11mpq_managerILb0EE6is_negERK3mpq(ptr noundef nonnull align 8 dereferenceable(32) %a) #4 comdat align 2 {
entry:
  %a.addr = alloca ptr, align 8
  store ptr %a, ptr %a.addr, align 8
  %0 = load ptr, ptr %a.addr, align 8
  %m_num = getelementptr inbounds %class.mpq, ptr %0, i32 0, i32 0
  %call = call noundef zeroext i1 @_ZN11mpq_managerILb0EE6is_negERK3mpz(ptr noundef nonnull align 8 dereferenceable(16) %m_num)
  ret i1 %call
}

; Function Attrs: mustprogress uwtable
define linkonce_odr hidden noundef nonnull align 8 dereferenceable(32) ptr @_ZNK13dep_intervals5lowerERKNS_9im_config8intervalE(ptr noundef nonnull align 8 dereferenceable(1424) %this, ptr noundef nonnull align 8 dereferenceable(88) %a) #4 comdat align 2 {
entry:
  %this.addr = alloca ptr, align 8
  %a.addr = alloca ptr, align 8
  store ptr %this, ptr %this.addr, align 8
  store ptr %a, ptr %a.addr, align 8
  %this1 = load ptr, ptr %this.addr, align 8
  %m_config = getelementptr inbounds %class.dep_intervals, ptr %this1, i32 0, i32 2
  %0 = load ptr, ptr %a.addr, align 8
  %call = call noundef nonnull align 8 dereferenceable(32) ptr @_ZNK13dep_intervals9im_config5lowerERKNS0_8intervalE(ptr noundef nonnull align 8 dereferenceable(16) %m_config, ptr noundef nonnull align 8 dereferenceable(88) %0)
  ret ptr %call
}

; Function Attrs: mustprogress uwtable
define linkonce_odr hidden noundef zeroext i1 @_ZNK13dep_intervals12lower_is_infERKNS_9im_config8intervalE(ptr noundef nonnull align 8 dereferenceable(1424) %this, ptr noundef nonnull align 8 dereferenceable(88) %a) #4 comdat align 2 {
entry:
  %this.addr = alloca ptr, align 8
  %a.addr = alloca ptr, align 8
  store ptr %this, ptr %this.addr, align 8
  store ptr %a, ptr %a.addr, align 8
  %this1 = load ptr, ptr %this.addr, align 8
  %m_config = getelementptr inbounds %class.dep_intervals, ptr %this1, i32 0, i32 2
  %0 = load ptr, ptr %a.addr, align 8
  %call = call noundef zeroext i1 @_ZNK13dep_intervals9im_config12lower_is_infERKNS0_8intervalE(ptr noundef nonnull align 8 dereferenceable(16) %m_config, ptr noundef nonnull align 8 dereferenceable(88) %0)
  ret i1 %call
}

; Function Attrs: mustprogress uwtable
define hidden noundef zeroext i1 @_ZNK13dep_intervals28separated_from_zero_on_lowerERKNS_9im_config8intervalE(ptr noundef nonnull align 8 dereferenceable(1424) %this, ptr noundef nonnull align 8 dereferenceable(88) %i) #4 align 2 {
entry:
  %retval = alloca i1, align 1
  %this.addr = alloca ptr, align 8
  %i.addr = alloca ptr, align 8
  store ptr %this, ptr %this.addr, align 8
  store ptr %i, ptr %i.addr, align 8
  %this1 = load ptr, ptr %this.addr, align 8
  %0 = load ptr, ptr %i.addr, align 8
  %call = call noundef zeroext i1 @_ZNK13dep_intervals12lower_is_infERKNS_9im_config8intervalE(ptr noundef nonnull align 8 dereferenceable(1424) %this1, ptr noundef nonnull align 8 dereferenceable(88) %0)
  br i1 %call, label %if.then, label %if.end

if.then:                                          ; preds = %entry
  store i1 false, ptr %retval, align 1
  br label %return

if.end:                                           ; preds = %entry
  %1 = load ptr, ptr %i.addr, align 8
  %call2 = call noundef nonnull align 8 dereferenceable(32) ptr @_ZNK13dep_intervals5lowerERKNS_9im_config8intervalE(ptr noundef nonnull align 8 dereferenceable(1424) %this1, ptr noundef nonnull align 8 dereferenceable(88) %1)
  %call3 = call noundef zeroext i1 @_ZN11mpq_managerILb0EE6is_negERK3mpq(ptr noundef nonnull align 8 dereferenceable(32) %call2)
  br i1 %call3, label %if.then4, label %if.end5

if.then4:                                         ; preds = %if.end
  store i1 false, ptr %retval, align 1
  br label %return

if.end5:                                          ; preds = %if.end
  %2 = load ptr, ptr %i.addr, align 8
  %call6 = call noundef nonnull align 8 dereferenceable(32) ptr @_ZNK13dep_intervals5lowerERKNS_9im_config8intervalE(ptr noundef nonnull align 8 dereferenceable(1424) %this1, ptr noundef nonnull align 8 dereferenceable(88) %2)
  %call7 = call noundef zeroext i1 @_ZN11mpq_managerILb0EE7is_zeroERK3mpq(ptr noundef nonnull align 8 dereferenceable(32) %call6)
  br i1 %call7, label %land.lhs.true, label %if.end10

land.lhs.true:                                    ; preds = %if.end5
  %m_config = getelementptr inbounds %class.dep_intervals, ptr %this1, i32 0, i32 2
  %3 = load ptr, ptr %i.addr, align 8
  %call8 = call noundef zeroext i1 @_ZNK13dep_intervals9im_config13lower_is_openERKNS0_8intervalE(ptr noundef nonnull align 8 dereferenceable(16) %m_config, ptr noundef nonnull align 8 dereferenceable(88) %3)
  br i1 %call8, label %if.end10, label %if.then9

if.then9:                                         ; preds = %land.lhs.true
  store i1 false, ptr %retval, align 1
  br label %return

if.end10:                                         ; preds = %land.lhs.true, %if.end5
  store i1 true, ptr %retval, align 1
  br label %return

return:                                           ; preds = %if.end10, %if.then9, %if.then4, %if.then
  %4 = load i1, ptr %retval, align 1
  ret i1 %4
}